; Function Attrs: nounwind uwtable
define hidden void @zim_DOM_Document_getElementsByTagNameNS(ptr nocapture noundef readonly %0, ptr noundef %1) local_unnamed_addr #0 {
  %3 = alloca i64, align 8
  %4 = alloca i64, align 8
  %5 = alloca ptr, align 8
  %6 = alloca ptr, align 8
  %7 = getelementptr inbounds i8, ptr %0, i64 44
  %8 = load i32, ptr %7, align 4
  %9 = call i32 (i32, ptr, ...) @zend_parse_parameters(i32 noundef %8, ptr noundef nonnull @.str.14, ptr noundef nonnull %5, ptr noundef nonnull %3, ptr noundef nonnull %6, ptr noundef nonnull %4) #10
  %10 = icmp eq i32 %9, -1
  br i1 %10, label %11, label %14

11:                                               ; preds = %2
  %12 = load ptr, ptr getelementptr inbounds (%struct._zend_executor_globals, ptr @executor_globals, i64 0, i32 50), align 8
  %13 = icmp ne ptr %12, null
  call void @llvm.assume(i1 %13)
  br label %36

14:                                               ; preds = %2
  %15 = getelementptr inbounds i8, ptr %0, i64 32
  %16 = load ptr, ptr %15, align 8
  %17 = getelementptr inbounds i8, ptr %16, i64 -24
  %18 = load ptr, ptr %17, align 8
  %19 = icmp eq ptr %18, null
  br i1 %19, label %20, label %28

20:                                               ; preds = %14
  %21 = getelementptr inbounds i8, ptr %16, i64 16
  %22 = load ptr, ptr %21, align 8
  %23 = getelementptr inbounds i8, ptr %22, i64 8
  %24 = load ptr, ptr %23, align 8
  %25 = getelementptr inbounds i8, ptr %24, i64 24
  call void (ptr, ptr, ...) @zend_throw_error(ptr noundef null, ptr noundef nonnull @.str.2, ptr noundef nonnull %25) #10
  %26 = load ptr, ptr getelementptr inbounds (%struct._zend_executor_globals, ptr @executor_globals, i64 0, i32 50), align 8
  %27 = icmp ne ptr %26, null
  call void @llvm.assume(i1 %27)
  br label %36

28:                                               ; preds = %14
  call void @php_dom_create_iterator(ptr noundef %1, i32 noundef 0) #10
  %29 = load ptr, ptr %1, align 8
  %30 = getelementptr inbounds i8, ptr %29, i64 -24
  %31 = load ptr, ptr %6, align 8
  %32 = load i64, ptr %4, align 8
  %33 = load ptr, ptr %5, align 8
  %.not = icmp eq ptr %33, null
  %34 = select i1 %.not, ptr @.str.15, ptr %33
  %35 = load i64, ptr %3, align 8
  call void @dom_namednode_iter(ptr noundef nonnull %17, i32 noundef 0, ptr noundef nonnull %30, ptr noundef null, ptr noundef %31, i64 noundef %32, ptr noundef nonnull %34, i64 noundef %35) #10
  br label %36

36:                                               ; preds = %28, %20, %11
  ret void
}